Certificate Revocation List (CRL):
        Version 2 (0x1)
    Signature Algorithm: sha1WithRSAEncryption
        Issuer: /C=US/ST=Montana/L=Bozeman/O=wolfSSL_2048/OU=Programming-2048/CN=www.wolfssl.com/emailAddress=info@wolfssl.com
        Last Update: Dec 21 19:53:31 2018 GMT
        Next Update: Sep 16 19:53:31 2021 GMT
        CRL extensions:
            X509v3 CRL Number: 
                6
No Revoked Certificates.
    Signature Algorithm: sha1WithRSAEncryption
         20:ca:73:f3:8e:7e:df:cc:f2:32:91:b3:cc:74:64:78:f0:14:
         a4:45:98:89:67:72:0f:dc:1e:37:9a:f7:83:8e:fb:7e:9e:e8:
         b0:94:0d:c1:7d:c8:a3:3f:4b:3a:c6:d2:f3:85:b4:18:c8:58:
         5c:a8:54:ab:2b:61:bb:99:54:92:b0:85:f9:a5:1e:60:00:7c:
         c8:7e:e4:4d:73:3b:2d:c2:80:34:49:77:ab:47:44:8c:ca:2e:
         5c:09:8a:d9:63:82:b2:bc:97:80:d9:b6:1a:36:9e:de:bf:c9:
         b5:72:07:12:bf:bc:51:44:de:d3:62:3f:c6:c5:80:c3:76:6b:
         7f:a2:b2:0d:a9:0d:64:c2:7f:3e:97:28:fd:f3:34:c6:85:68:
         38:10:14:00:a5:ea:9e:9b:6f:e3:1f:35:77:1f:4d:f4:2b:92:
         a7:49:55:7a:3e:fb:82:ce:59:2d:3a:52:75:d6:d2:d5:f4:62:
         13:59:c1:d8:ea:b0:98:84:5f:3c:8b:42:de:37:57:c0:78:e6:
         d7:03:95:da:50:07:49:d0:66:3f:7f:78:2d:c3:07:1d:ef:79:
         64:7f:21:47:b6:4d:18:99:67:18:ba:4f:2a:b9:85:d1:ba:94:
         a5:ea:cd:7e:44:1c:0c:b2:31:20:a5:d8:c8:98:b0:b7:32:9a:
         0c:7b:bd:23
-----BEGIN X509 CRL-----
MIIB+DCB4QIBATANBgkqhkiG9w0BAQUFADCBnjELMAkGA1UEBhMCVVMxEDAOBgNV
BAgMB01vbnRhbmExEDAOBgNVBAcMB0JvemVtYW4xFTATBgNVBAoMDHdvbGZTU0xf
MjA0ODEZMBcGA1UECwwQUHJvZ3JhbW1pbmctMjA0ODEYMBYGA1UEAwwPd3d3Lndv
bGZzc2wuY29tMR8wHQYJKoZIhvcNAQkBFhBpbmZvQHdvbGZzc2wuY29tFw0xODEy
MjExOTUzMzFaFw0yMTA5MTYxOTUzMzFaoA4wDDAKBgNVHRQEAwIBBjANBgkqhkiG
9w0BAQUFAAOCAQEAIMpz845+38zyMpGzzHRkePAUpEWYiWdyD9weN5r3g477fp7o
sJQNwX3Ioz9LOsbS84W0GMhYXKhUqythu5lUkrCF+aUeYAB8yH7kTXM7LcKANEl3
q0dEjMouXAmK2WOCsryXgNm2Gjae3r/JtXIHEr+8UUTe02I/xsWAw3Zrf6KyDakN
ZMJ/Ppco/fM0xoVoOBAUAKXqnptv4x81dx9N9CuSp0lVej77gs5ZLTpSddbS1fRi
E1nB2OqwmIRfPItC3jdXwHjm1wOV2lAHSdBmP394LcMHHe95ZH8hR7ZNGJlnGLpP
KrmF0bqUperNfkQcDLIxIKXYyJiwtzKaDHu9Iw==
-----END X509 CRL-----
