Certificate Revocation List (CRL):
        Version 2 (0x1)
    Signature Algorithm: sha1WithRSAEncryption
        Issuer: /C=US/ST=Montana/L=Bozeman/O=Sawtooth/OU=Consulting/CN=www.wolfssl.com/emailAddress=info@wolfssl.com
        Last Update: Dec 21 19:53:31 2018 GMT
        Next Update: Sep 16 19:53:31 2021 GMT
        CRL extensions:
            X509v3 CRL Number: 
                3
Revoked Certificates:
    Serial Number: 01
        Revocation Date: Dec 21 19:53:31 2018 GMT
    Serial Number: 02
        Revocation Date: Dec 21 19:53:31 2018 GMT
    Signature Algorithm: sha1WithRSAEncryption
         70:27:c7:fe:98:ed:ce:dd:b4:57:4c:5d:6f:70:cc:3a:be:8e:
         32:0d:65:d7:3e:24:7b:ef:87:ea:27:eb:67:bd:cc:41:5f:44:
         83:01:c8:ab:32:fb:eb:dc:f0:8d:82:7a:5c:7f:9d:24:48:6f:
         61:70:6b:3d:b1:5d:f3:f3:4d:e1:24:bc:99:46:65:07:2f:1d:
         10:f2:ea:32:67:93:12:d8:cf:26:c6:0c:96:95:6b:14:20:dc:
         10:9c:9e:a8:83:75:85:12:22:b8:db:65:58:90:84:32:27:18:
         5a:56:14:a7:3d:43:75:31:4e:f6:86:3f:33:d0:cd:19:fb:6e:
         c5:b7:90:2d:7e:06:71:55:4a:a8:30:9f:78:1d:8c:6b:bd:ba:
         05:b2:57:2a:61:3d:77:36:0e:9e:01:95:de:21:eb:8c:dd:c4:
         24:ce:5d:8d:a3:9c:f3:80:63:b8:13:8c:5a:11:9a:ca:5e:53:
         bd:62:9a:ff:7b:6b:26:d1:e2:22:d9:0f:11:2b:85:72:78:c2:
         8f:93:82:9e:6a:14:d5:4a:30:22:b2:f4:f5:15:9c:ca:78:80:
         7e:7e:3b:25:dc:58:33:51:42:4b:fb:a0:10:de:46:3d:fe:41:
         3e:32:96:38:90:86:43:39:81:0a:53:61:0a:a3:e1:a6:8c:bf:
         9b:f0:21:76
-----BEGIN X509 CRL-----
MIICGTCCAQECAQEwDQYJKoZIhvcNAQEFBQAwgZQxCzAJBgNVBAYTAlVTMRAwDgYD
VQQIDAdNb250YW5hMRAwDgYDVQQHDAdCb3plbWFuMREwDwYDVQQKDAhTYXd0b290
aDETMBEGA1UECwwKQ29uc3VsdGluZzEYMBYGA1UEAwwPd3d3LndvbGZzc2wuY29t
MR8wHQYJKoZIhvcNAQkBFhBpbmZvQHdvbGZzc2wuY29tFw0xODEyMjExOTUzMzFa
Fw0yMTA5MTYxOTUzMzFaMCgwEgIBARcNMTgxMjIxMTk1MzMxWjASAgECFw0xODEy
MjExOTUzMzFaoA4wDDAKBgNVHRQEAwIBAzANBgkqhkiG9w0BAQUFAAOCAQEAcCfH
/pjtzt20V0xdb3DMOr6OMg1l1z4ke++H6ifrZ73MQV9EgwHIqzL769zwjYJ6XH+d
JEhvYXBrPbFd8/NN4SS8mUZlBy8dEPLqMmeTEtjPJsYMlpVrFCDcEJyeqIN1hRIi
uNtlWJCEMicYWlYUpz1DdTFO9oY/M9DNGftuxbeQLX4GcVVKqDCfeB2Ma726BbJX
KmE9dzYOngGV3iHrjN3EJM5djaOc84BjuBOMWhGayl5TvWKa/3trJtHiItkPESuF
cnjCj5OCnmoU1UowIrL09RWcyniAfn47JdxYM1FCS/ugEN5GPf5BPjKWOJCGQzmB
ClNhCqPhpoy/m/Ahdg==
-----END X509 CRL-----
