Certificate Revocation List (CRL):
        Version 2 (0x1)
    Signature Algorithm: sha1WithRSAEncryption
        Issuer: /C=US/ST=Montana/L=Bozeman/O=Sawtooth/OU=Consulting/CN=www.wolfssl.com/emailAddress=info@wolfssl.com
        Last Update: Dec 21 19:53:31 2018 GMT
        Next Update: Sep 16 19:53:31 2021 GMT
        CRL extensions:
            X509v3 CRL Number: 
                2
Revoked Certificates:
    Serial Number: 02
        Revocation Date: Dec 21 19:53:31 2018 GMT
    Signature Algorithm: sha1WithRSAEncryption
         48:b9:ae:3a:c7:c5:27:7e:52:51:d9:d0:ad:32:e9:f5:67:6b:
         9c:f9:a7:e0:84:89:aa:12:16:f7:47:48:8b:f3:08:bb:0a:3b:
         db:af:3b:6a:1d:b5:02:01:2c:8c:f5:a3:d2:32:af:85:af:13:
         1a:96:58:29:26:db:32:24:91:24:80:3f:68:8c:fb:5b:25:00:
         2e:0f:63:7b:59:0d:3b:ad:45:0c:eb:63:51:56:cc:b3:22:df:
         5d:21:b2:1a:30:9e:34:f4:63:ae:97:72:e8:ba:12:c6:cc:8a:
         65:98:f4:78:3b:81:a9:7c:76:66:dd:fd:56:ed:ab:9c:0d:75:
         f6:79:6a:27:b3:da:a8:00:01:5a:08:eb:a3:b2:a2:65:4b:fc:
         f6:fe:a2:19:3e:7e:ac:f5:28:cc:04:5d:4f:70:1c:c8:82:37:
         47:b4:79:79:3a:70:91:f1:b8:6e:5c:22:74:81:3e:84:3e:0f:
         60:6d:fb:19:20:74:79:63:4b:bf:93:ed:8e:7f:e5:fa:70:69:
         74:6b:aa:4e:05:30:a0:59:e0:27:43:5a:a7:ca:3d:03:dd:15:
         36:28:1d:2d:0f:28:cd:22:03:15:29:5e:c5:cf:21:69:d8:8c:
         92:2c:8a:23:b6:17:00:ce:2e:62:e8:85:76:02:8f:dc:a4:2b:
         7e:96:42:dc
-----BEGIN X509 CRL-----
MIICBDCB7QIBATANBgkqhkiG9w0BAQUFADCBlDELMAkGA1UEBhMCVVMxEDAOBgNV
BAgMB01vbnRhbmExEDAOBgNVBAcMB0JvemVtYW4xETAPBgNVBAoMCFNhd3Rvb3Ro
MRMwEQYDVQQLDApDb25zdWx0aW5nMRgwFgYDVQQDDA93d3cud29sZnNzbC5jb20x
HzAdBgkqhkiG9w0BCQEWEGluZm9Ad29sZnNzbC5jb20XDTE4MTIyMTE5NTMzMVoX
DTIxMDkxNjE5NTMzMVowFDASAgECFw0xODEyMjExOTUzMzFaoA4wDDAKBgNVHRQE
AwIBAjANBgkqhkiG9w0BAQUFAAOCAQEASLmuOsfFJ35SUdnQrTLp9WdrnPmn4ISJ
qhIW90dIi/MIuwo72687ah21AgEsjPWj0jKvha8TGpZYKSbbMiSRJIA/aIz7WyUA
Lg9je1kNO61FDOtjUVbMsyLfXSGyGjCeNPRjrpdy6LoSxsyKZZj0eDuBqXx2Zt39
Vu2rnA119nlqJ7PaqAABWgjro7KiZUv89v6iGT5+rPUozARdT3AcyII3R7R5eTpw
kfG4blwidIE+hD4PYG37GSB0eWNLv5Ptjn/l+nBpdGuqTgUwoFngJ0Nap8o9A90V
NigdLQ8ozSIDFSlexc8hadiMkiyKI7YXAM4uYuiFdgKP3KQrfpZC3A==
-----END X509 CRL-----
