Certificate:
    Data:
        Version: 3 (0x2)
        Serial Number: 4096 (0x1000)
    Signature Algorithm: sha256WithRSAEncryption
        Issuer: C=US, ST=Montana, L=Bozeman, O=Sawtooth, OU=Consulting, CN=www.wolfssl.com/emailAddress=info@wolfssl.com
        Validity
            Not Before: Dec 21 18:08:29 2018 GMT
            Not After : Dec 16 18:08:29 2038 GMT
        Subject: C=US, ST=Washington, L=Seattle, O=wolfSSL, OU=Development, CN=wolfSSL Intermediate CA/emailAddress=info@wolfssl.com
        Subject Public Key Info:
            Public Key Algorithm: rsaEncryption
                Public-Key: (2048 bit)
                Modulus:
                    00:a9:95:f7:69:ba:63:a0:92:30:52:9b:83:ff:54:
                    b4:78:8d:fd:35:af:10:d0:8e:ef:76:df:c3:a7:78:
                    32:9c:2e:08:b5:ca:2c:a5:c0:ea:44:7b:83:44:f2:
                    0b:08:b9:dc:7e:e9:d9:05:79:84:2e:cd:bf:62:a5:
                    38:fd:3d:cf:75:fd:33:57:b0:d2:e1:85:05:68:34:
                    c9:11:7f:af:f1:c7:77:c7:88:71:49:db:42:00:c6:
                    93:7e:44:9d:53:b2:1e:0b:f1:70:e3:e8:11:88:3a:
                    59:50:88:7c:95:cb:03:ac:41:bc:e4:3e:ad:3c:2a:
                    c2:af:f2:91:94:2f:91:91:32:72:03:3b:64:90:24:
                    bc:d2:03:c3:55:3d:19:0b:9c:38:5e:db:12:87:a8:
                    aa:83:c3:3e:dc:37:94:01:60:a4:4a:e3:c1:75:8d:
                    12:4f:02:33:b5:02:33:2e:cb:23:52:5c:d6:bf:f0:
                    17:5a:8f:55:36:12:c6:b9:38:7c:17:9b:13:9b:08:
                    e4:80:da:1f:b5:11:97:9f:ce:ca:0e:45:a5:83:bf:
                    fd:13:33:9c:45:80:19:0e:d3:8f:1f:ee:c5:6f:40:
                    ca:ef:4c:b7:88:f8:08:9c:e1:cf:04:27:74:37:69:
                    9d:1e:f0:74:0c:aa:d3:6a:ad:0b:d3:a9:71:9f:29:
                    c3:a5
                Exponent: 65537 (0x10001)
        X509v3 extensions:
            X509v3 Subject Key Identifier: 
                58:E1:81:3E:E9:C1:FB:C8:44:7B:17:EE:59:AE:65:86:12:0E:A7:F0
            X509v3 Authority Key Identifier: 
                keyid:27:8E:67:11:74:C3:26:1D:3F:ED:33:63:B3:A4:D8:1D:30:E5:E8:D5

            X509v3 Basic Constraints: critical
                CA:TRUE, pathlen:0
            X509v3 Key Usage: critical
                Digital Signature, Certificate Sign, CRL Sign
    Signature Algorithm: sha256WithRSAEncryption
         91:ec:d2:f7:32:39:2f:9e:63:95:44:66:5b:ff:f2:a5:f6:42:
         3a:49:94:42:ab:9b:7f:c3:5e:e9:4c:f2:79:10:ce:7e:b4:24:
         f5:50:bb:d6:28:c0:af:30:b6:ef:15:ed:02:de:05:34:82:31:
         29:fb:c0:cc:af:fa:ba:17:64:61:f4:07:d2:cc:d8:c2:c2:02:
         f2:04:eb:1b:bd:68:c2:8f:8e:c3:aa:b7:76:66:e1:03:43:4d:
         fb:0d:b6:0e:bd:17:6e:70:d0:02:6f:1e:45:4c:01:7a:51:1f:
         c2:d5:ac:99:10:1e:89:b5:b0:c3:12:14:a4:55:9b:a4:92:a4:
         b8:d2:1b:a6:4b:5f:7f:76:c3:51:37:ed:09:e8:05:3c:bb:ab:
         cb:01:cf:3f:04:29:9a:a4:b0:bf:3f:d1:03:59:11:cb:99:dc:
         a6:7f:39:63:ca:7a:53:0a:4c:c9:19:e0:8a:4c:06:40:5a:eb:
         fe:77:6d:da:17:d7:7a:ea:d0:ce:c2:aa:63:96:3e:69:00:59:
         52:6b:23:29:4c:48:31:ef:d0:2b:81:38:ee:6e:ff:f0:37:23:
         41:46:e3:04:b7:ea:2c:3e:66:53:51:96:fc:d0:cf:af:56:a9:
         3f:47:74:79:3e:49:d7:2c:cd:b4:70:1f:fb:40:ee:7d:b0:e6:
         af:81:ae:28
-----BEGIN CERTIFICATE-----
MIIEFzCCAv+gAwIBAgICEAAwDQYJKoZIhvcNAQELBQAwgZQxCzAJBgNVBAYTAlVT
MRAwDgYDVQQIDAdNb250YW5hMRAwDgYDVQQHDAdCb3plbWFuMREwDwYDVQQKDAhT
YXd0b290aDETMBEGA1UECwwKQ29uc3VsdGluZzEYMBYGA1UEAwwPd3d3LndvbGZz
c2wuY29tMR8wHQYJKoZIhvcNAQkBFhBpbmZvQHdvbGZzc2wuY29tMB4XDTE4MTIy
MTE4MDgyOVoXDTM4MTIxNjE4MDgyOVowgZ8xCzAJBgNVBAYTAlVTMRMwEQYDVQQI
DApXYXNoaW5ndG9uMRAwDgYDVQQHDAdTZWF0dGxlMRAwDgYDVQQKDAd3b2xmU1NM
MRQwEgYDVQQLDAtEZXZlbG9wbWVudDEgMB4GA1UEAwwXd29sZlNTTCBJbnRlcm1l
ZGlhdGUgQ0ExHzAdBgkqhkiG9w0BCQEWEGluZm9Ad29sZnNzbC5jb20wggEiMA0G
CSqGSIb3DQEBAQUAA4IBDwAwggEKAoIBAQCplfdpumOgkjBSm4P/VLR4jf01rxDQ
ju9238OneDKcLgi1yiylwOpEe4NE8gsIudx+6dkFeYQuzb9ipTj9Pc91/TNXsNLh
hQVoNMkRf6/xx3fHiHFJ20IAxpN+RJ1Tsh4L8XDj6BGIOllQiHyVywOsQbzkPq08
KsKv8pGUL5GRMnIDO2SQJLzSA8NVPRkLnDhe2xKHqKqDwz7cN5QBYKRK48F1jRJP
AjO1AjMuyyNSXNa/8Bdaj1U2Esa5OHwXmxObCOSA2h+1EZefzsoORaWDv/0TM5xF
gBkO048f7sVvQMrvTLeI+Aic4c8EJ3Q3aZ0e8HQMqtNqrQvTqXGfKcOlAgMBAAGj
ZjBkMB0GA1UdDgQWBBRY4YE+6cH7yER7F+5ZrmWGEg6n8DAfBgNVHSMEGDAWgBQn
jmcRdMMmHT/tM2OzpNgdMOXo1TASBgNVHRMBAf8ECDAGAQH/AgEAMA4GA1UdDwEB
/wQEAwIBhjANBgkqhkiG9w0BAQsFAAOCAQEAkezS9zI5L55jlURmW//ypfZCOkmU
Qqubf8Ne6UzyeRDOfrQk9VC71ijArzC27xXtAt4FNIIxKfvAzK/6uhdkYfQH0szY
wsIC8gTrG71owo+Ow6q3dmbhA0NN+w22Dr0XbnDQAm8eRUwBelEfwtWsmRAeibWw
wxIUpFWbpJKkuNIbpktff3bDUTftCegFPLurywHPPwQpmqSwvz/RA1kRy5ncpn85
Y8p6UwpMyRngikwGQFrr/ndt2hfXeurQzsKqY5Y+aQBZUmsjKUxIMe/QK4E47m7/
8DcjQUbjBLfqLD5mU1GW/NDPr1apP0d0eT5J1yzNtHAf+0DufbDmr4GuKA==
-----END CERTIFICATE-----
