Certificate:
    Data:
        Version: 3 (0x2)
        Serial Number: 4099 (0x1003)
    Signature Algorithm: ecdsa-with-SHA256
        Issuer: C=US, ST=Washington, L=Seattle, O=wolfSSL, OU=Development, CN=www.wolfssl.com/emailAddress=info@wolfssl.com
        Validity
            Not Before: Dec 21 18:08:30 2018 GMT
            Not After : Dec 16 18:08:30 2038 GMT
        Subject: C=US, ST=Washington, L=Seattle, O=wolfSSL, OU=Development, CN=wolfSSL Intermediate CA ECC/emailAddress=info@wolfssl.com
        Subject Public Key Info:
            Public Key Algorithm: id-ecPublicKey
                Public-Key: (256 bit)
                pub: 
                    04:fe:bf:d2:6d:58:29:aa:05:ba:43:eb:85:c6:7d:
                    2e:d6:eb:c3:0e:3d:e8:52:b0:00:54:2a:05:ad:4c:
                    f9:d4:ed:5d:40:bd:8b:30:e8:e2:70:9f:cd:01:35:
                    12:b0:8c:1a:95:c7:b8:99:8d:3d:15:13:84:bf:ba:
                    0d:80:89:f9:0f
                ASN1 OID: prime256v1
                NIST CURVE: P-256
        X509v3 extensions:
            X509v3 Subject Key Identifier: 
                59:F9:F7:AF:C4:EE:FE:5A:4A:BF:8C:F4:F2:16:E7:3F:AC:B4:AD:09
            X509v3 Authority Key Identifier: 
                keyid:56:8E:9A:C3:F0:42:DE:18:B9:45:55:6E:F9:93:CF:EA:C3:F3:A5:21

            X509v3 Basic Constraints: critical
                CA:TRUE, pathlen:0
            X509v3 Key Usage: critical
                Digital Signature, Certificate Sign, CRL Sign
    Signature Algorithm: ecdsa-with-SHA256
         30:45:02:21:00:80:ce:78:84:33:82:5c:01:3c:ea:25:55:e6:
         05:8b:90:ec:9c:28:a9:78:e8:0e:56:05:9f:c9:1d:17:93:85:
         b5:02:20:45:89:8d:e7:0e:44:4c:2e:10:54:fb:c7:3f:e2:9f:
         02:a1:6d:7e:3f:b2:09:ca:28:1e:64:4e:c7:79:e1:cd:af
-----BEGIN CERTIFICATE-----
MIICkjCCAjigAwIBAgICEAMwCgYIKoZIzj0EAwIwgZcxCzAJBgNVBAYTAlVTMRMw
EQYDVQQIDApXYXNoaW5ndG9uMRAwDgYDVQQHDAdTZWF0dGxlMRAwDgYDVQQKDAd3
b2xmU1NMMRQwEgYDVQQLDAtEZXZlbG9wbWVudDEYMBYGA1UEAwwPd3d3LndvbGZz
c2wuY29tMR8wHQYJKoZIhvcNAQkBFhBpbmZvQHdvbGZzc2wuY29tMB4XDTE4MTIy
MTE4MDgzMFoXDTM4MTIxNjE4MDgzMFowgaMxCzAJBgNVBAYTAlVTMRMwEQYDVQQI
DApXYXNoaW5ndG9uMRAwDgYDVQQHDAdTZWF0dGxlMRAwDgYDVQQKDAd3b2xmU1NM
MRQwEgYDVQQLDAtEZXZlbG9wbWVudDEkMCIGA1UEAwwbd29sZlNTTCBJbnRlcm1l
ZGlhdGUgQ0EgRUNDMR8wHQYJKoZIhvcNAQkBFhBpbmZvQHdvbGZzc2wuY29tMFkw
EwYHKoZIzj0CAQYIKoZIzj0DAQcDQgAE/r/SbVgpqgW6Q+uFxn0u1uvDDj3oUrAA
VCoFrUz51O1dQL2LMOjicJ/NATUSsIwalce4mY09FROEv7oNgIn5D6NmMGQwHQYD
VR0OBBYEFFn596/E7v5aSr+M9PIW5z+stK0JMB8GA1UdIwQYMBaAFFaOmsPwQt4Y
uUVVbvmTz+rD86UhMBIGA1UdEwEB/wQIMAYBAf8CAQAwDgYDVR0PAQH/BAQDAgGG
MAoGCCqGSM49BAMCA0gAMEUCIQCAzniEM4JcATzqJVXmBYuQ7JwoqXjoDlYFn8kd
F5OFtQIgRYmN5w5ETC4QVPvHP+KfAqFtfj+yCcooHmROx3nhza8=
-----END CERTIFICATE-----
