Certificate:
    Data:
        Version: 3 (0x2)
        Serial Number: 4098 (0x1002)
    Signature Algorithm: sha256WithRSAEncryption
        Issuer: C=US, ST=Washington, L=Seattle, O=wolfSSL, OU=Development, CN=wolfSSL Intermediate CA/emailAddress=info@wolfssl.com
        Validity
            Not Before: Dec 21 18:08:29 2018 GMT
            Not After : Dec 18 18:08:29 2028 GMT
        Subject: C=US, ST=Washington, L=Seattle, O=wolfSSL, OU=Development, CN=wolfSSL Client Chain/emailAddress=info@wolfssl.com
        Subject Public Key Info:
            Public Key Algorithm: rsaEncryption
                Public-Key: (2048 bit)
                Modulus:
                    00:c3:03:d1:2b:fe:39:a4:32:45:3b:53:c8:84:2b:
                    2a:7c:74:9a:bd:aa:2a:52:07:47:d6:a6:36:b2:07:
                    32:8e:d0:ba:69:7b:c6:c3:44:9e:d4:81:48:fd:2d:
                    68:a2:8b:67:bb:a1:75:c8:36:2c:4a:d2:1b:f7:8b:
                    ba:cf:0d:f9:ef:ec:f1:81:1e:7b:9b:03:47:9a:bf:
                    65:cc:7f:65:24:69:a6:e8:14:89:5b:e4:34:f7:c5:
                    b0:14:93:f5:67:7b:3a:7a:78:e1:01:56:56:91:a6:
                    13:42:8d:d2:3c:40:9c:4c:ef:d1:86:df:37:51:1b:
                    0c:a1:3b:f5:f1:a3:4a:35:e4:e1:ce:96:df:1b:7e:
                    bf:4e:97:d0:10:e8:a8:08:30:81:af:20:0b:43:14:
                    c5:74:67:b4:32:82:6f:8d:86:c2:88:40:99:36:83:
                    ba:1e:40:72:22:17:d7:52:65:24:73:b0:ce:ef:19:
                    cd:ae:ff:78:6c:7b:c0:12:03:d4:4e:72:0d:50:6d:
                    3b:a3:3b:a3:99:5e:9d:c8:d9:0c:85:b3:d9:8a:d9:
                    54:26:db:6d:fa:ac:bb:ff:25:4c:c4:d1:79:f4:71:
                    d3:86:40:18:13:b0:63:b5:72:4e:30:c4:97:84:86:
                    2d:56:2f:d7:15:f7:7f:c0:ae:f5:fc:5b:e5:fb:a1:
                    ba:d3
                Exponent: 65537 (0x10001)
        X509v3 extensions:
            X509v3 Basic Constraints: 
                CA:FALSE
            Netscape Cert Type: 
                SSL Client, S/MIME
            X509v3 Subject Key Identifier: 
                33:D8:45:66:D7:68:87:18:7E:54:0D:70:27:91:C7:26:D7:85:65:C0
            X509v3 Authority Key Identifier: 
                keyid:58:E1:81:3E:E9:C1:FB:C8:44:7B:17:EE:59:AE:65:86:12:0E:A7:F0

            X509v3 Key Usage: critical
                Digital Signature, Non Repudiation, Key Encipherment
            X509v3 Extended Key Usage: 
                TLS Web Client Authentication, E-mail Protection
    Signature Algorithm: sha256WithRSAEncryption
         4a:25:e8:66:cd:6a:6c:82:9f:8d:05:bf:ba:de:fd:cf:56:8f:
         f2:11:9b:5e:c6:58:0d:a2:ae:74:ac:e1:1a:40:77:f2:9c:33:
         41:c6:ca:68:03:e8:8d:8f:d3:6d:12:42:63:f2:06:c6:c1:78:
         c1:ac:02:6a:b2:5a:6f:b6:96:1e:b7:1c:65:2d:5e:cf:37:c3:
         60:f7:f4:35:f8:93:47:c5:45:98:23:d3:82:88:fc:3a:31:67:
         9c:d7:4d:0e:2e:1e:8a:29:20:5d:c4:3a:59:54:13:17:fb:96:
         10:ae:3b:a9:6c:9c:42:be:0e:58:a3:75:57:b0:1d:6b:8e:a1:
         86:88:54:26:ca:84:2c:c6:33:f6:5e:d9:ed:f1:13:f0:12:ea:
         2b:70:64:94:a2:05:ad:f6:e9:47:87:6e:aa:67:28:76:ef:e5:
         e9:12:b4:78:45:e6:b9:45:99:58:98:e0:a4:b4:b3:ea:da:87:
         b4:db:31:1e:fd:4e:e6:04:d2:c3:80:26:34:94:48:80:b4:44:
         0d:73:f0:d7:4a:18:07:2e:22:ab:c2:c8:96:4c:95:37:d8:d4:
         6c:1a:8d:30:23:9f:cb:4f:f9:1a:94:e8:18:dd:c4:3f:27:bb:
         d1:c2:fa:63:80:bb:30:df:73:2b:8e:1d:3e:05:09:6c:6a:16:
         75:2e:0f:f4
-----BEGIN CERTIFICATE-----
MIIESjCCAzKgAwIBAgICEAIwDQYJKoZIhvcNAQELBQAwgZ8xCzAJBgNVBAYTAlVT
MRMwEQYDVQQIDApXYXNoaW5ndG9uMRAwDgYDVQQHDAdTZWF0dGxlMRAwDgYDVQQK
DAd3b2xmU1NMMRQwEgYDVQQLDAtEZXZlbG9wbWVudDEgMB4GA1UEAwwXd29sZlNT
TCBJbnRlcm1lZGlhdGUgQ0ExHzAdBgkqhkiG9w0BCQEWEGluZm9Ad29sZnNzbC5j
b20wHhcNMTgxMjIxMTgwODI5WhcNMjgxMjE4MTgwODI5WjCBnDELMAkGA1UEBhMC
VVMxEzARBgNVBAgMCldhc2hpbmd0b24xEDAOBgNVBAcMB1NlYXR0bGUxEDAOBgNV
BAoMB3dvbGZTU0wxFDASBgNVBAsMC0RldmVsb3BtZW50MR0wGwYDVQQDDBR3b2xm
U1NMIENsaWVudCBDaGFpbjEfMB0GCSqGSIb3DQEJARYQaW5mb0B3b2xmc3NsLmNv
bTCCASIwDQYJKoZIhvcNAQEBBQADggEPADCCAQoCggEBAMMD0Sv+OaQyRTtTyIQr
Knx0mr2qKlIHR9amNrIHMo7Quml7xsNEntSBSP0taKKLZ7uhdcg2LErSG/eLus8N
+e/s8YEee5sDR5q/Zcx/ZSRppugUiVvkNPfFsBST9Wd7Onp44QFWVpGmE0KN0jxA
nEzv0YbfN1EbDKE79fGjSjXk4c6W3xt+v06X0BDoqAgwga8gC0MUxXRntDKCb42G
wohAmTaDuh5AciIX11JlJHOwzu8Zza7/eGx7wBID1E5yDVBtO6M7o5lencjZDIWz
2YrZVCbbbfqsu/8lTMTRefRx04ZAGBOwY7VyTjDEl4SGLVYv1xX3f8Cu9fxb5fuh
utMCAwEAAaOBkDCBjTAJBgNVHRMEAjAAMBEGCWCGSAGG+EIBAQQEAwIFoDAdBgNV
HQ4EFgQUM9hFZtdohxh+VA1wJ5HHJteFZcAwHwYDVR0jBBgwFoAUWOGBPunB+8hE
exfuWa5lhhIOp/AwDgYDVR0PAQH/BAQDAgXgMB0GA1UdJQQWMBQGCCsGAQUFBwMC
BggrBgEFBQcDBDANBgkqhkiG9w0BAQsFAAOCAQEASiXoZs1qbIKfjQW/ut79z1aP
8hGbXsZYDaKudKzhGkB38pwzQcbKaAPojY/TbRJCY/IGxsF4wawCarJab7aWHrcc
ZS1ezzfDYPf0NfiTR8VFmCPTgoj8OjFnnNdNDi4eiikgXcQ6WVQTF/uWEK47qWyc
Qr4OWKN1V7Ada46hhohUJsqELMYz9l7Z7fET8BLqK3BklKIFrfbpR4duqmcodu/l
6RK0eEXmuUWZWJjgpLSz6tqHtNsxHv1O5gTSw4AmNJRIgLREDXPw10oYBy4iq8LI
lkyVN9jUbBqNMCOfy0/5GpToGN3EPye70cL6Y4C7MN9zK44dPgUJbGoWdS4P9A==
-----END CERTIFICATE-----
