Certificate:
    Data:
        Version: 3 (0x2)
        Serial Number: 4101 (0x1005)
    Signature Algorithm: ecdsa-with-SHA256
        Issuer: C=US, ST=Washington, L=Seattle, O=wolfSSL, OU=Development, CN=wolfSSL Intermediate CA ECC/emailAddress=info@wolfssl.com
        Validity
            Not Before: Dec 21 18:08:30 2018 GMT
            Not After : Dec 18 18:08:30 2028 GMT
        Subject: C=US, ST=Washington, L=Seattle, O=wolfSSL, OU=Development, CN=wolfSSL Client Chain ECC/emailAddress=info@wolfssl.com
        Subject Public Key Info:
            Public Key Algorithm: id-ecPublicKey
                Public-Key: (256 bit)
                pub: 
                    04:55:bf:f4:0f:44:50:9a:3d:ce:9b:b7:f0:c5:4d:
                    f5:70:7b:d4:ec:24:8e:19:80:ec:5a:4c:a2:24:03:
                    62:2c:9b:da:ef:a2:35:12:43:84:76:16:c6:56:95:
                    06:cc:01:a9:bd:f6:75:1a:42:f7:bd:a9:b2:36:22:
                    5f:c7:5d:7f:b4
                ASN1 OID: prime256v1
                NIST CURVE: P-256
        X509v3 extensions:
            X509v3 Basic Constraints: 
                CA:FALSE
            Netscape Cert Type: 
                SSL Client, S/MIME
            X509v3 Subject Key Identifier: 
                EB:D4:4B:59:6B:95:61:3F:51:57:B6:04:4D:89:41:88:44:5C:AB:F2
            X509v3 Authority Key Identifier: 
                keyid:59:F9:F7:AF:C4:EE:FE:5A:4A:BF:8C:F4:F2:16:E7:3F:AC:B4:AD:09

            X509v3 Key Usage: critical
                Digital Signature, Non Repudiation, Key Encipherment
            X509v3 Extended Key Usage: 
                TLS Web Client Authentication, E-mail Protection
    Signature Algorithm: ecdsa-with-SHA256
         30:44:02:20:48:1b:e8:6f:63:c3:26:f1:03:a5:0c:94:25:df:
         c3:27:e5:90:67:43:23:dd:a9:6b:1d:46:a2:3b:d9:52:f5:6b:
         02:20:47:25:77:3c:d4:9b:89:87:c1:f4:7b:69:49:55:f9:3d:
         43:52:76:53:cb:a3:e4:f1:70:20:2e:3f:e1:ed:bd:d6
-----BEGIN CERTIFICATE-----
MIICxTCCAmygAwIBAgICEAUwCgYIKoZIzj0EAwIwgaMxCzAJBgNVBAYTAlVTMRMw
EQYDVQQIDApXYXNoaW5ndG9uMRAwDgYDVQQHDAdTZWF0dGxlMRAwDgYDVQQKDAd3
b2xmU1NMMRQwEgYDVQQLDAtEZXZlbG9wbWVudDEkMCIGA1UEAwwbd29sZlNTTCBJ
bnRlcm1lZGlhdGUgQ0EgRUNDMR8wHQYJKoZIhvcNAQkBFhBpbmZvQHdvbGZzc2wu
Y29tMB4XDTE4MTIyMTE4MDgzMFoXDTI4MTIxODE4MDgzMFowgaAxCzAJBgNVBAYT
AlVTMRMwEQYDVQQIDApXYXNoaW5ndG9uMRAwDgYDVQQHDAdTZWF0dGxlMRAwDgYD
VQQKDAd3b2xmU1NMMRQwEgYDVQQLDAtEZXZlbG9wbWVudDEhMB8GA1UEAwwYd29s
ZlNTTCBDbGllbnQgQ2hhaW4gRUNDMR8wHQYJKoZIhvcNAQkBFhBpbmZvQHdvbGZz
c2wuY29tMFkwEwYHKoZIzj0CAQYIKoZIzj0DAQcDQgAEVb/0D0RQmj3Om7fwxU31
cHvU7CSOGYDsWkyiJANiLJva76I1EkOEdhbGVpUGzAGpvfZ1GkL3vamyNiJfx11/
tKOBkDCBjTAJBgNVHRMEAjAAMBEGCWCGSAGG+EIBAQQEAwIFoDAdBgNVHQ4EFgQU
69RLWWuVYT9RV7YETYlBiERcq/IwHwYDVR0jBBgwFoAUWfn3r8Tu/lpKv4z08hbn
P6y0rQkwDgYDVR0PAQH/BAQDAgXgMB0GA1UdJQQWMBQGCCsGAQUFBwMCBggrBgEF
BQcDBDAKBggqhkjOPQQDAgNHADBEAiBIG+hvY8Mm8QOlDJQl38Mn5ZBnQyPdqWsd
RqI72VL1awIgRyV3PNSbiYfB9HtpSVX5PUNSdlPLo+TxcCAuP+HtvdY=
-----END CERTIFICATE-----
