Certificate:
    Data:
        Version: 3 (0x2)
        Serial Number: 4097 (0x1001)
    Signature Algorithm: sha256WithRSAEncryption
        Issuer: C=US, ST=Washington, L=Seattle, O=wolfSSL, OU=Development, CN=wolfSSL Intermediate CA/emailAddress=info@wolfssl.com
        Validity
            Not Before: Dec 21 18:08:29 2018 GMT
            Not After : Dec 18 18:08:29 2028 GMT
        Subject: C=US, ST=Washington, L=Seattle, O=wolfSSL, OU=Development, CN=wolfSSL Server Chain/emailAddress=info@wolfssl.com
        Subject Public Key Info:
            Public Key Algorithm: rsaEncryption
                Public-Key: (2048 bit)
                Modulus:
                    00:c0:95:08:e1:57:41:f2:71:6d:b7:d2:45:41:27:
                    01:65:c6:45:ae:f2:bc:24:30:b8:95:ce:2f:4e:d6:
                    f6:1c:88:bc:7c:9f:fb:a8:67:7f:fe:5c:9c:51:75:
                    f7:8a:ca:07:e7:35:2f:8f:e1:bd:7b:c0:2f:7c:ab:
                    64:a8:17:fc:ca:5d:7b:ba:e0:21:e5:72:2e:6f:2e:
                    86:d8:95:73:da:ac:1b:53:b9:5f:3f:d7:19:0d:25:
                    4f:e1:63:63:51:8b:0b:64:3f:ad:43:b8:a5:1c:5c:
                    34:b3:ae:00:a0:63:c5:f6:7f:0b:59:68:78:73:a6:
                    8c:18:a9:02:6d:af:c3:19:01:2e:b8:10:e3:c6:cc:
                    40:b4:69:a3:46:33:69:87:6e:c4:bb:17:a6:f3:e8:
                    dd:ad:73:bc:7b:2f:21:b5:fd:66:51:0c:bd:54:b3:
                    e1:6d:5f:1c:bc:23:73:d1:09:03:89:14:d2:10:b9:
                    64:c3:2a:d0:a1:96:4a:bc:e1:d4:1a:5b:c7:a0:c0:
                    c1:63:78:0f:44:37:30:32:96:80:32:23:95:a1:77:
                    ba:13:d2:97:73:e2:5d:25:c9:6a:0d:c3:39:60:a4:
                    b4:b0:69:42:42:09:e9:d8:08:bc:33:20:b3:58:22:
                    a7:aa:eb:c4:e1:e6:61:83:c5:d2:96:df:d9:d0:4f:
                    ad:d7
                Exponent: 65537 (0x10001)
        X509v3 extensions:
            X509v3 Basic Constraints: 
                CA:FALSE
            Netscape Cert Type: 
                SSL Server
            X509v3 Subject Key Identifier: 
                B3:11:32:C9:92:98:84:E2:C9:F8:D0:3B:6E:03:42:CA:1F:0E:8E:3C
            X509v3 Authority Key Identifier: 
                keyid:58:E1:81:3E:E9:C1:FB:C8:44:7B:17:EE:59:AE:65:86:12:0E:A7:F0
                DirName:/C=US/ST=Montana/L=Bozeman/O=Sawtooth/OU=Consulting/CN=www.wolfssl.com/emailAddress=info@wolfssl.com
                serial:10:00

            X509v3 Key Usage: critical
                Digital Signature, Key Encipherment, Key Agreement
            X509v3 Extended Key Usage: 
                TLS Web Server Authentication
    Signature Algorithm: sha256WithRSAEncryption
         0e:13:ce:04:1a:8a:a9:d1:af:07:9f:79:2a:4d:ba:eb:f3:f5:
         8e:fd:f9:73:d3:9f:80:86:ec:90:3d:1f:47:ae:a0:72:83:1c:
         25:27:04:bf:ec:57:dd:a9:99:27:c0:39:85:d7:07:43:ea:e7:
         a0:fa:a8:7b:af:2c:ee:0a:6a:0c:e7:82:e9:d9:4d:f0:af:3b:
         6b:2c:1f:a1:c5:60:21:5b:bb:49:9c:aa:fd:14:37:5c:1f:21:
         1d:17:b0:ab:85:13:03:20:d5:14:cf:fb:05:5c:ec:7a:09:53:
         16:1b:1a:8d:31:1a:9e:7c:88:d4:1a:6f:a5:48:71:64:a0:e0:
         d0:96:2f:17:fe:03:e5:3c:da:e5:eb:84:68:a2:3c:a5:b5:6f:
         a2:51:6e:42:2b:c6:7a:98:9b:13:d0:9b:bd:5d:b1:3f:03:ea:
         ce:12:8f:3f:7c:29:70:25:2c:62:b3:c5:0c:1f:1f:17:71:d6:
         10:85:b6:b9:e4:00:ca:aa:2f:be:4c:d0:53:a3:b2:45:2e:e8:
         b2:a3:ce:15:ce:27:63:dc:e0:a4:12:de:7b:fa:17:ce:8d:a0:
         6f:9f:ae:5a:4c:11:2e:17:23:be:10:03:f1:ff:29:ab:13:1f:
         4c:e6:37:cc:19:19:f3:07:5f:61:4f:d8:80:f3:e3:ed:e0:91:
         ea:7d:58:9b
-----BEGIN CERTIFICATE-----
MIIE5jCCA86gAwIBAgICEAEwDQYJKoZIhvcNAQELBQAwgZ8xCzAJBgNVBAYTAlVT
MRMwEQYDVQQIDApXYXNoaW5ndG9uMRAwDgYDVQQHDAdTZWF0dGxlMRAwDgYDVQQK
DAd3b2xmU1NMMRQwEgYDVQQLDAtEZXZlbG9wbWVudDEgMB4GA1UEAwwXd29sZlNT
TCBJbnRlcm1lZGlhdGUgQ0ExHzAdBgkqhkiG9w0BCQEWEGluZm9Ad29sZnNzbC5j
b20wHhcNMTgxMjIxMTgwODI5WhcNMjgxMjE4MTgwODI5WjCBnDELMAkGA1UEBhMC
VVMxEzARBgNVBAgMCldhc2hpbmd0b24xEDAOBgNVBAcMB1NlYXR0bGUxEDAOBgNV
BAoMB3dvbGZTU0wxFDASBgNVBAsMC0RldmVsb3BtZW50MR0wGwYDVQQDDBR3b2xm
U1NMIFNlcnZlciBDaGFpbjEfMB0GCSqGSIb3DQEJARYQaW5mb0B3b2xmc3NsLmNv
bTCCASIwDQYJKoZIhvcNAQEBBQADggEPADCCAQoCggEBAMCVCOFXQfJxbbfSRUEn
AWXGRa7yvCQwuJXOL07W9hyIvHyf+6hnf/5cnFF194rKB+c1L4/hvXvAL3yrZKgX
/Mpde7rgIeVyLm8uhtiVc9qsG1O5Xz/XGQ0lT+FjY1GLC2Q/rUO4pRxcNLOuAKBj
xfZ/C1loeHOmjBipAm2vwxkBLrgQ48bMQLRpo0YzaYduxLsXpvPo3a1zvHsvIbX9
ZlEMvVSz4W1fHLwjc9EJA4kU0hC5ZMMq0KGWSrzh1Bpbx6DAwWN4D0Q3MDKWgDIj
laF3uhPSl3PiXSXJag3DOWCktLBpQkIJ6dgIvDMgs1gip6rrxOHmYYPF0pbf2dBP
rdcCAwEAAaOCASswggEnMAkGA1UdEwQCMAAwEQYJYIZIAYb4QgEBBAQDAgZAMB0G
A1UdDgQWBBSzETLJkpiE4sn40DtuA0LKHw6OPDCBwgYDVR0jBIG6MIG3gBRY4YE+
6cH7yER7F+5ZrmWGEg6n8KGBmqSBlzCBlDELMAkGA1UEBhMCVVMxEDAOBgNVBAgM
B01vbnRhbmExEDAOBgNVBAcMB0JvemVtYW4xETAPBgNVBAoMCFNhd3Rvb3RoMRMw
EQYDVQQLDApDb25zdWx0aW5nMRgwFgYDVQQDDA93d3cud29sZnNzbC5jb20xHzAd
BgkqhkiG9w0BCQEWEGluZm9Ad29sZnNzbC5jb22CAhAAMA4GA1UdDwEB/wQEAwID
qDATBgNVHSUEDDAKBggrBgEFBQcDATANBgkqhkiG9w0BAQsFAAOCAQEADhPOBBqK
qdGvB595Kk266/P1jv35c9OfgIbskD0fR66gcoMcJScEv+xX3amZJ8A5hdcHQ+rn
oPqoe68s7gpqDOeC6dlN8K87aywfocVgIVu7SZyq/RQ3XB8hHRewq4UTAyDVFM/7
BVzseglTFhsajTEannyI1BpvpUhxZKDg0JYvF/4D5Tza5euEaKI8pbVvolFuQivG
epibE9CbvV2xPwPqzhKPP3wpcCUsYrPFDB8fF3HWEIW2ueQAyqovvkzQU6OyRS7o
sqPOFc4nY9zgpBLee/oXzo2gb5+uWkwRLhcjvhAD8f8pqxMfTOY3zBkZ8wdfYU/Y
gPPj7eCR6n1Ymw==
-----END CERTIFICATE-----
